; Function Attrs: mustprogress uwtable
define void @_ZN10StringList9AddStringEPKw(ptr nocapture noundef nonnull align 8 dereferenceable(184) %0, ptr noundef %1) local_unnamed_addr #2 align 2 {
  %3 = icmp eq ptr %1, null
  %spec.store.select = select i1 %3, ptr @.str, ptr %1
  %4 = getelementptr inbounds i8, ptr %0, i64 8
  %5 = load i64, ptr %4, align 8
  %6 = tail call i64 @wcslen(ptr noundef nonnull %spec.store.select) #15
  %7 = add i64 %5, 1
  %8 = add i64 %7, %6
  store i64 %8, ptr %4, align 8
  %9 = getelementptr inbounds i8, ptr %0, i64 16
  %10 = load i64, ptr %9, align 8
  %11 = icmp ugt i64 %8, %10
  br i1 %11, label %12, label %._ZN5ArrayIwE3AddEm.exit_crit_edge

._ZN5ArrayIwE3AddEm.exit_crit_edge:               ; preds = %2
  %.pre = load ptr, ptr %0, align 8
  br label %_ZN5ArrayIwE3AddEm.exit

12:                                               ; preds = %2
  %13 = getelementptr inbounds i8, ptr %0, i64 24
  %14 = load i64, ptr %13, align 8
  %.not.i = icmp ne i64 %14, 0
  %15 = icmp ugt i64 %8, %14
  %or.cond.i = and i1 %.not.i, %15
  br i1 %or.cond.i, label %16, label %17

16:                                               ; preds = %12
  tail call void (ptr, ptr, ...) @_ZN12ErrorHandler13GeneralErrMsgEPKwz(ptr noundef nonnull align 4 dereferenceable(14) @ErrHandler, ptr noundef nonnull @.str.1, i64 noundef %14)
  tail call void @_ZN12ErrorHandler11MemoryErrorEv(ptr noundef nonnull align 4 dereferenceable(14) @ErrHandler)
  %.pre.i = load i64, ptr %9, align 8
  %.pre10.i = load i64, ptr %4, align 8
  br label %17

17:                                               ; preds = %16, %12
  %18 = phi i64 [ %.pre10.i, %16 ], [ %8, %12 ]
  %19 = phi i64 [ %.pre.i, %16 ], [ %10, %12 ]
  %20 = lshr i64 %19, 2
  %21 = add i64 %19, 32
  %22 = add i64 %21, %20
  %..i = tail call i64 @llvm.umax.i64(i64 %18, i64 %22)
  %23 = load ptr, ptr %0, align 8
  %24 = shl i64 %..i, 2
  %25 = tail call ptr @realloc(ptr noundef %23, i64 noundef %24) #16
  %26 = icmp eq ptr %25, null
  br i1 %26, label %27, label %28

27:                                               ; preds = %17
  tail call void @_ZN12ErrorHandler11MemoryErrorEv(ptr noundef nonnull align 4 dereferenceable(14) @ErrHandler)
  br label %28

28:                                               ; preds = %27, %17
  store ptr %25, ptr %0, align 8
  store i64 %..i, ptr %9, align 8
  br label %_ZN5ArrayIwE3AddEm.exit

_ZN5ArrayIwE3AddEm.exit:                          ; preds = %._ZN5ArrayIwE3AddEm.exit_crit_edge, %28
  %29 = phi ptr [ %.pre, %._ZN5ArrayIwE3AddEm.exit_crit_edge ], [ %25, %28 ]
  %30 = getelementptr inbounds i32, ptr %29, i64 %5
  %31 = tail call ptr @wcscpy(ptr noundef nonnull %30, ptr noundef nonnull %spec.store.select) #14
  %32 = getelementptr inbounds i8, ptr %0, i64 40
  %33 = load i64, ptr %32, align 8
  %34 = add i64 %33, 1
  store i64 %34, ptr %32, align 8
  ret void
}